; ModuleID = '1/444.cpp'
source_filename = "1/444.cpp"
target datalayout = "e-m:e-p270:32:32-p271:32:32-p272:64:64-i64:64-f80:128-n8:16:32:64-S128"
target triple = "x86_64-pc-linux-gnu"

%"class.std::ios_base::Init" = type { i8 }
%"class.std::basic_istream" = type { i32 (...)**, i64, %"class.std::basic_ios" }
%"class.std::basic_ios" = type { %"class.std::ios_base", %"class.std::basic_ostream"*, i8, i8, %"class.std::basic_streambuf"*, %"class.std::ctype"*, %"class.std::num_put"*, %"class.std::num_get"* }
%"class.std::ios_base" = type { i32 (...)**, i64, i64, i32, i32, i32, %"struct.std::ios_base::_Callback_list"*, %"struct.std::ios_base::_Words", [8 x %"struct.std::ios_base::_Words"], i32, %"struct.std::ios_base::_Words"*, %"class.std::locale" }
%"struct.std::ios_base::_Callback_list" = type { %"struct.std::ios_base::_Callback_list"*, void (i32, %"class.std::ios_base"*, i32)*, i32, i32 }
%"struct.std::ios_base::_Words" = type { i8*, i64 }
%"class.std::locale" = type { %"class.std::locale::_Impl"* }
%"class.std::locale::_Impl" = type { i32, %"class.std::locale::facet"**, i64, %"class.std::locale::facet"**, i8** }
%"class.std::locale::facet" = type <{ i32 (...)**, i32, [4 x i8] }>
%"class.std::basic_ostream" = type { i32 (...)**, %"class.std::basic_ios" }
%"class.std::basic_streambuf" = type { i32 (...)**, i8*, i8*, i8*, i8*, i8*, i8*, %"class.std::locale" }
%"class.std::ctype" = type <{ %"class.std::locale::facet.base", [4 x i8], %struct.__locale_struct*, i8, [7 x i8], i32*, i32*, i16*, i8, [256 x i8], [256 x i8], i8, [6 x i8] }>
%"class.std::locale::facet.base" = type <{ i32 (...)**, i32 }>
%struct.__locale_struct = type { [13 x %struct.__locale_data*], i16*, i32*, i32*, [13 x i8*] }
%struct.__locale_data = type opaque
%"class.std::num_put" = type { %"class.std::locale::facet.base", [4 x i8] }
%"class.std::num_get" = type { %"class.std::locale::facet.base", [4 x i8] }

@_ZStL8__ioinit = internal global %"class.std::ios_base::Init" zeroinitializer, align 1
@__dso_handle = external hidden global i8
@_ZSt3cin = external dso_local global %"class.std::basic_istream", align 8
@_ZSt4cout = external dso_local global %"class.std::basic_ostream", align 8
@llvm.global_ctors = appending global [1 x { i32, void ()*, i8* }] [{ i32, void ()*, i8* } { i32 65535, void ()* @_GLOBAL__sub_I_444.cpp, i8* null }]

; Function Attrs: noinline uwtable
define internal void @__cxx_global_var_init() #0 section ".text.startup" {
  call void @_ZNSt8ios_base4InitC1Ev(%"class.std::ios_base::Init"* @_ZStL8__ioinit)
  %1 = call i32 @__cxa_atexit(void (i8*)* bitcast (void (%"class.std::ios_base::Init"*)* @_ZNSt8ios_base4InitD1Ev to void (i8*)*), i8* getelementptr inbounds (%"class.std::ios_base::Init", %"class.std::ios_base::Init"* @_ZStL8__ioinit, i32 0, i32 0), i8* @__dso_handle) #3
  ret void
}

declare dso_local void @_ZNSt8ios_base4InitC1Ev(%"class.std::ios_base::Init"*) unnamed_addr #1

; Function Attrs: nounwind
declare dso_local void @_ZNSt8ios_base4InitD1Ev(%"class.std::ios_base::Init"*) unnamed_addr #2

; Function Attrs: nounwind
declare dso_local i32 @__cxa_atexit(void (i8*)*, i8*, i8*) #3

; Function Attrs: noinline norecurse uwtable
define dso_local i32 @main() #4 {
  %1 = alloca i32, align 4
  %2 = alloca i32, align 4
  %3 = alloca i32, align 4
  %4 = alloca [100 x i32], align 16
  %5 = alloca [100 x i32], align 16
  store i32 0, i32* %1, align 4
  %6 = call dereferenceable(280) %"class.std::basic_istream"* @_ZNSirsERi(%"class.std::basic_istream"* @_ZSt3cin, i32* dereferenceable(4) %2)
  store i32 0, i32* %3, align 4
  br label %7

7:                                                ; preds = %16, %0
  %8 = load i32, i32* %3, align 4
  %9 = load i32, i32* %2, align 4
  %10 = icmp slt i32 %8, %9
  br i1 %10, label %11, label %19

11:                                               ; preds = %7
  %12 = load i32, i32* %3, align 4
  %13 = sext i32 %12 to i64
  %14 = getelementptr inbounds [100 x i32], [100 x i32]* %4, i64 0, i64 %13
  %15 = call dereferenceable(280) %"class.std::basic_istream"* @_ZNSirsERi(%"class.std::basic_istream"* @_ZSt3cin, i32* dereferenceable(4) %14)
  br label %16

16:                                               ; preds = %11
  %17 = load i32, i32* %3, align 4
  %18 = add nsw i32 %17, 1
  store i32 %18, i32* %3, align 4
  br label %7

19:                                               ; preds = %7
  store i32 0, i32* %3, align 4
  br label %20

20:                                               ; preds = %39, %19
  %21 = load i32, i32* %3, align 4
  %22 = load i32, i32* %2, align 4
  %23 = icmp slt i32 %21, %22
  br i1 %23, label %24, label %42

24:                                               ; preds = %20
  %25 = load i32, i32* %3, align 4
  %26 = sext i32 %25 to i64
  %27 = getelementptr inbounds [100 x i32], [100 x i32]* %4, i64 0, i64 %26
  %28 = load i32, i32* %27, align 4
  %29 = call i32 @_Z1fii(i32 %28, i32 2)
  %30 = load i32, i32* %3, align 4
  %31 = sext i32 %30 to i64
  %32 = getelementptr inbounds [100 x i32], [100 x i32]* %5, i64 0, i64 %31
  store i32 %29, i32* %32, align 4
  %33 = load i32, i32* %3, align 4
  %34 = sext i32 %33 to i64
  %35 = getelementptr inbounds [100 x i32], [100 x i32]* %5, i64 0, i64 %34
  %36 = load i32, i32* %35, align 4
  %37 = call dereferenceable(272) %"class.std::basic_ostream"* @_ZNSolsEi(%"class.std::basic_ostream"* @_ZSt4cout, i32 %36)
  %38 = call dereferenceable(272) %"class.std::basic_ostream"* @_ZNSolsEPFRSoS_E(%"class.std::basic_ostream"* %37, %"class.std::basic_ostream"* (%"class.std::basic_ostream"*)* @_ZSt4endlIcSt11char_traitsIcEERSt13basic_ostreamIT_T0_ES6_)
  br label %39

39:                                               ; preds = %24
  %40 = load i32, i32* %3, align 4
  %41 = add nsw i32 %40, 1
  store i32 %41, i32* %3, align 4
  br label %20

42:                                               ; preds = %20
  ret i32 0
}

declare dso_local dereferenceable(280) %"class.std::basic_istream"* @_ZNSirsERi(%"class.std::basic_istream"*, i32* dereferenceable(4)) #1

; Function Attrs: noinline uwtable
define dso_local i32 @_Z1fii(i32 %0, i32 %1) #0 {
  %3 = alloca i32, align 4
  %4 = alloca i32, align 4
  %5 = alloca i32, align 4
  %6 = alloca i32, align 4
  %7 = alloca i32, align 4
  store i32 %0, i32* %4, align 4
  store i32 %1, i32* %5, align 4
  store i32 0, i32* %7, align 4
  %8 = load i32, i32* %4, align 4
  %9 = load i32, i32* %5, align 4
  %10 = icmp eq i32 %8, %9
  br i1 %10, label %14, label %11

11:                                               ; preds = %2
  %12 = load i32, i32* %4, align 4
  %13 = icmp eq i32 %12, 1
  br i1 %13, label %14, label %15

14:                                               ; preds = %11, %2
  store i32 1, i32* %3, align 4
  br label %52

15:                                               ; preds = %11
  %16 = load i32, i32* %4, align 4
  %17 = load i32, i32* %5, align 4
  %18 = icmp slt i32 %16, %17
  br i1 %18, label %19, label %20

19:                                               ; preds = %15
  store i32 0, i32* %3, align 4
  br label %52

20:                                               ; preds = %15
  %21 = load i32, i32* %4, align 4
  %22 = load i32, i32* %5, align 4
  %23 = icmp sgt i32 %21, %22
  br i1 %23, label %24, label %49

24:                                               ; preds = %20
  %25 = load i32, i32* %5, align 4
  store i32 %25, i32* %6, align 4
  br label %26

26:                                               ; preds = %44, %24
  %27 = load i32, i32* %6, align 4
  %28 = load i32, i32* %4, align 4
  %29 = icmp sle i32 %27, %28
  br i1 %29, label %30, label %47

30:                                               ; preds = %26
  %31 = load i32, i32* %4, align 4
  %32 = load i32, i32* %6, align 4
  %33 = srem i32 %31, %32
  %34 = icmp eq i32 %33, 0
  br i1 %34, label %35, label %43

35:                                               ; preds = %30
  %36 = load i32, i32* %4, align 4
  %37 = load i32, i32* %6, align 4
  %38 = sdiv i32 %36, %37
  %39 = load i32, i32* %6, align 4
  %40 = call i32 @_Z1fii(i32 %38, i32 %39)
  %41 = load i32, i32* %7, align 4
  %42 = add nsw i32 %41, %40
  store i32 %42, i32* %7, align 4
  br label %43

43:                                               ; preds = %35, %30
  br label %44

44:                                               ; preds = %43
  %45 = load i32, i32* %6, align 4
  %46 = add nsw i32 %45, 1
  store i32 %46, i32* %6, align 4
  br label %26

47:                                               ; preds = %26
  %48 = load i32, i32* %7, align 4
  store i32 %48, i32* %3, align 4
  br label %52

49:                                               ; preds = %20
  br label %50

50:                                               ; preds = %49
  br label %51

51:                                               ; preds = %50
  call void @llvm.trap()
  unreachable

52:                                               ; preds = %47, %19, %14
  %53 = load i32, i32* %3, align 4
  ret i32 %53
}

declare dso_local dereferenceable(272) %"class.std::basic_ostream"* @_ZNSolsEi(%"class.std::basic_ostream"*, i32) #1

declare dso_local dereferenceable(272) %"class.std::basic_ostream"* @_ZNSolsEPFRSoS_E(%"class.std::basic_ostream"*, %"class.std::basic_ostream"* (%"class.std::basic_ostream"*)*) #1

declare dso_local dereferenceable(272) %"class.std::basic_ostream"* @_ZSt4endlIcSt11char_traitsIcEERSt13basic_ostreamIT_T0_ES6_(%"class.std::basic_ostream"* dereferenceable(272)) #1

; Function Attrs: cold noreturn nounwind
declare void @llvm.trap() #5

; Function Attrs: noinline uwtable
define internal void @_GLOBAL__sub_I_444.cpp() #0 section ".text.startup" {
  call void @__cxx_global_var_init()
  ret void
}


!llvm.module.flags = !{!0}
!llvm.ident = !{!1}

!0 = !{i32 1, !"wchar_size", i32 4}
!1 = !{!"clang version 10.0.0-4ubuntu1 "}
